target datalayout = "e-m:e-p270:32:32-p271:32:32-p272:64:64-i64:64-i128:128-f80:128-n8:16:32:64-S128"
target triple = "x86_64-unknown-linux-gnu"

@.str.88 = private unnamed_addr constant [11 x i8] c"0123456789\00", align 1
@parse_add_seekpoint.garbled_ = internal global ptr @.str.90, align 8
@.str.91 = private unnamed_addr constant [23 x i8] c"specification is empty\00", align 1
@.str.92 = private unnamed_addr constant [15 x i8] c"0123456789.Xsx\00", align 1
@.str.93 = private unnamed_addr constant [41 x i8] c"specification contains invalid character\00", align 1
@.str.94 = private unnamed_addr constant [12 x i8] c"0123456789.\00", align 1

; Function Attrs: nounwind sspstrong uwtable
define internal i32 @parse_add_seekpoint(ptr noundef %in, ptr noundef %out, ptr noundef %violation) #0 {
entry:
  %retval = alloca i32, align 4
  %in.addr = alloca ptr, align 8
  %out.addr = alloca ptr, align 8
  %violation.addr = alloca ptr, align 8
  %n = alloca i32, align 4
  store ptr %in, ptr %in.addr, align 8
  store ptr %out, ptr %out.addr, align 8
  store ptr %violation, ptr %violation.addr, align 8
  %0 = load ptr, ptr %in.addr, align 8
  %call = call i64 @strlen(ptr noundef %0) #9
  %conv = trunc i64 %call to i32
  store i32 %conv, ptr %n, align 4
  %1 = load i32, ptr %n, align 4
  %cmp = icmp eq i32 %1, 0
  br i1 %cmp, label %if.then, label %if.end

if.then:                                          ; preds = %entry
  %2 = load ptr, ptr %violation.addr, align 8
  store ptr @.str.91, ptr %2, align 8
  store i32 0, ptr %retval, align 4
  br label %return

if.end:                                           ; preds = %entry
  %3 = load i32, ptr %n, align 4
  %conv2 = zext i32 %3 to i64
  %4 = load ptr, ptr %in.addr, align 8
  %call3 = call i64 @strspn(ptr noundef %4, ptr noundef @.str.92) #9
  %cmp4 = icmp ugt i64 %conv2, %call3
  br i1 %cmp4, label %if.then6, label %if.end7

if.then6:                                         ; preds = %if.end
  %5 = load ptr, ptr %violation.addr, align 8
  store ptr @.str.93, ptr %5, align 8
  store i32 0, ptr %retval, align 4
  br label %return

if.end7:                                          ; preds = %if.end
  %6 = load ptr, ptr %in.addr, align 8
  %7 = load i32, ptr %n, align 4
  %sub = sub i32 %7, 1
  %idxprom = zext i32 %sub to i64
  %arrayidx = getelementptr inbounds i8, ptr %6, i64 %idxprom
  %8 = load i8, ptr %arrayidx, align 1
  %conv8 = sext i8 %8 to i32
  %cmp9 = icmp eq i32 %conv8, 88
  br i1 %cmp9, label %if.then11, label %if.else

if.then11:                                        ; preds = %if.end7
  %9 = load i32, ptr %n, align 4
  %cmp12 = icmp ugt i32 %9, 1
  br i1 %cmp12, label %if.then14, label %if.end15

if.then14:                                        ; preds = %if.then11
  %10 = load ptr, ptr @parse_add_seekpoint.garbled_, align 8
  %11 = load ptr, ptr %violation.addr, align 8
  store ptr %10, ptr %11, align 8
  store i32 0, ptr %retval, align 4
  br label %return

if.end15:                                         ; preds = %if.then11
  br label %if.end54

if.else:                                          ; preds = %if.end7
  %12 = load ptr, ptr %in.addr, align 8
  %13 = load i32, ptr %n, align 4
  %sub16 = sub i32 %13, 1
  %idxprom17 = zext i32 %sub16 to i64
  %arrayidx18 = getelementptr inbounds i8, ptr %12, i64 %idxprom17
  %14 = load i8, ptr %arrayidx18, align 1
  %conv19 = sext i8 %14 to i32
  %cmp20 = icmp eq i32 %conv19, 115
  br i1 %cmp20, label %if.then22, label %if.else30

if.then22:                                        ; preds = %if.else
  %15 = load i32, ptr %n, align 4
  %sub23 = sub i32 %15, 1
  %conv24 = zext i32 %sub23 to i64
  %16 = load ptr, ptr %in.addr, align 8
  %call25 = call i64 @strspn(ptr noundef %16, ptr noundef @.str.94) #9
  %cmp26 = icmp ugt i64 %conv24, %call25
  br i1 %cmp26, label %if.then28, label %if.end29

if.then28:                                        ; preds = %if.then22
  %17 = load ptr, ptr @parse_add_seekpoint.garbled_, align 8
  %18 = load ptr, ptr %violation.addr, align 8
  store ptr %17, ptr %18, align 8
  store i32 0, ptr %retval, align 4
  br label %return

if.end29:                                         ; preds = %if.then22
  br label %if.end53

if.else30:                                        ; preds = %if.else
  %19 = load ptr, ptr %in.addr, align 8
  %20 = load i32, ptr %n, align 4
  %sub31 = sub i32 %20, 1
  %idxprom32 = zext i32 %sub31 to i64
  %arrayidx33 = getelementptr inbounds i8, ptr %19, i64 %idxprom32
  %21 = load i8, ptr %arrayidx33, align 1
  %conv34 = sext i8 %21 to i32
  %cmp35 = icmp eq i32 %conv34, 120
  br i1 %cmp35, label %if.then37, label %if.else45

if.then37:                                        ; preds = %if.else30
  %22 = load i32, ptr %n, align 4
  %sub38 = sub i32 %22, 1
  %conv39 = zext i32 %sub38 to i64
  %23 = load ptr, ptr %in.addr, align 8
  %call40 = call i64 @strspn(ptr noundef %23, ptr noundef @.str.88) #9
  %cmp41 = icmp ugt i64 %conv39, %call40
  br i1 %cmp41, label %if.then43, label %if.end44

if.then43:                                        ; preds = %if.then37
  %24 = load ptr, ptr @parse_add_seekpoint.garbled_, align 8
  %25 = load ptr, ptr %violation.addr, align 8
  store ptr %24, ptr %25, align 8
  store i32 0, ptr %retval, align 4
  br label %return

if.end44:                                         ; preds = %if.then37
  br label %if.end52

if.else45:                                        ; preds = %if.else30
  %26 = load i32, ptr %n, align 4
  %conv46 = zext i32 %26 to i64
  %27 = load ptr, ptr %in.addr, align 8
  %call47 = call i64 @strspn(ptr noundef %27, ptr noundef @.str.88) #9
  %cmp48 = icmp ugt i64 %conv46, %call47
  br i1 %cmp48, label %if.then50, label %if.end51

if.then50:                                        ; preds = %if.else45
  %28 = load ptr, ptr @parse_add_seekpoint.garbled_, align 8
  %29 = load ptr, ptr %violation.addr, align 8
  store ptr %28, ptr %29, align 8
  store i32 0, ptr %retval, align 4
  br label %return

if.end51:                                         ; preds = %if.else45
  br label %if.end52

if.end52:                                         ; preds = %if.end51, %if.end44
  br label %if.end53

if.end53:                                         ; preds = %if.end52, %if.end29
  br label %if.end54

if.end54:                                         ; preds = %if.end53, %if.end15
  %30 = load ptr, ptr %in.addr, align 8
  %call55 = call ptr @local_strdup(ptr noundef %30)
  %31 = load ptr, ptr %out.addr, align 8
  store ptr %call55, ptr %31, align 8
  store i32 1, ptr %retval, align 4
  br label %return

return:                                           ; preds = %if.end54, %if.then50, %if.then43, %if.then28, %if.then14, %if.then6, %if.then
  %32 = load i32, ptr %retval, align 4
  ret i32 %32
}