; Function Attrs: nounwind sspstrong uwtable
define internal fastcc range(i32 0, 2) i32 @parse_add_seekpoint(ptr noundef %in, ptr noundef nonnull writeonly captures(none) %out, ptr noundef nonnull writeonly captures(none) %violation) unnamed_addr #1 {
entry:
  %call = tail call i64 @strlen(ptr noundef nonnull dereferenceable(1) %in) #21
  %conv = trunc i64 %call to i32
  %cmp = icmp eq i32 %conv, 0
  br i1 %cmp, label %if.then, label %if.end

if.then:                                          ; preds = %entry
  store ptr @.str.91, ptr %violation, align 8
  br label %return

if.end:                                           ; preds = %entry
  %conv2 = and i64 %call, 4294967295
  %call3 = tail call i64 @strspn(ptr noundef nonnull %in, ptr noundef nonnull @.str.92) #21
  %cmp4 = icmp ugt i64 %conv2, %call3
  br i1 %cmp4, label %if.then6, label %if.end7

if.then6:                                         ; preds = %if.end
  store ptr @.str.93, ptr %violation, align 8
  br label %return

if.end7:                                          ; preds = %if.end
  %sub = add i64 %call, 4294967295
  %idxprom = and i64 %sub, 4294967295
  %arrayidx = getelementptr inbounds nuw i8, ptr %in, i64 %idxprom
  %0 = load i8, ptr %arrayidx, align 1
  switch i8 %0, label %if.else45 [
    i8 88, label %if.then11
    i8 115, label %if.then22
    i8 120, label %if.then37
  ]

if.then11:                                        ; preds = %if.end7
  %cmp12.not = icmp eq i32 %conv, 1
  br i1 %cmp12.not, label %if.end54, label %if.then14

if.then14:                                        ; preds = %if.then11
  store ptr @.str.90, ptr %violation, align 8
  br label %return

if.then22:                                        ; preds = %if.end7
  %call25 = tail call i64 @strspn(ptr noundef nonnull %in, ptr noundef nonnull @.str.94) #21
  %cmp26 = icmp ugt i64 %idxprom, %call25
  br i1 %cmp26, label %if.then28, label %if.end54

if.then28:                                        ; preds = %if.then22
  store ptr @.str.90, ptr %violation, align 8
  br label %return

if.then37:                                        ; preds = %if.end7
  %call40 = tail call i64 @strspn(ptr noundef nonnull %in, ptr noundef nonnull @.str.88) #21
  %cmp41 = icmp ugt i64 %idxprom, %call40
  br i1 %cmp41, label %if.then43, label %if.end54

if.then43:                                        ; preds = %if.then37
  store ptr @.str.90, ptr %violation, align 8
  br label %return

if.else45:                                        ; preds = %if.end7
  %call47 = tail call i64 @strspn(ptr noundef nonnull %in, ptr noundef nonnull @.str.88) #21
  %cmp48 = icmp ugt i64 %conv2, %call47
  br i1 %cmp48, label %if.then50, label %if.end54

if.then50:                                        ; preds = %if.else45
  store ptr @.str.90, ptr %violation, align 8
  br label %return

if.end54:                                         ; preds = %if.then22, %if.else45, %if.then37, %if.then11
  %call55 = tail call ptr @local_strdup(ptr noundef nonnull %in) #20
  store ptr %call55, ptr %out, align 8
  br label %return

return:                                           ; preds = %if.end54, %if.then50, %if.then43, %if.then28, %if.then14, %if.then6, %if.then
  %retval.0 = phi i32 [ 0, %if.then ], [ 0, %if.then6 ], [ 0, %if.then14 ], [ 1, %if.end54 ], [ 0, %if.then28 ], [ 0, %if.then43 ], [ 0, %if.then50 ]
  ret i32 %retval.0
}